target datalayout = "e-m:e-p270:32:32-p271:32:32-p272:64:64-i64:64-i128:128-f80:128-n8:16:32:64-S128"
target triple = "x86_64-pc-linux-gnu"

%struct.Node = type { i32 }

@.str = private unnamed_addr constant [27 x i8] c"unrecognized node type: %d\00", align 1
@.str.1 = private unnamed_addr constant [10 x i8] c"execAmi.c\00", align 1
@__func__.ExecMarkPos = private unnamed_addr constant [12 x i8] c"ExecMarkPos\00", align 1

; Function Attrs: nounwind uwtable
define dso_local void @ExecMarkPos(ptr noundef %0) #0 {
  %2 = alloca ptr, align 8
  store ptr %0, ptr %2, align 8
  %3 = load ptr, ptr %2, align 8
  %4 = getelementptr inbounds nuw %struct.Node, ptr %3, i32 0, i32 0
  %5 = load i32, ptr %4, align 4
  switch i32 %5, label %18 [
    i32 404, label %6
    i32 405, label %8
    i32 418, label %10
    i32 423, label %12
    i32 425, label %14
    i32 393, label %16
  ]

6:                                                ; preds = %1
  %7 = load ptr, ptr %2, align 8
  call void @ExecIndexMarkPos(ptr noundef %7)
  br label %31

8:                                                ; preds = %1
  %9 = load ptr, ptr %2, align 8
  call void @ExecIndexOnlyMarkPos(ptr noundef %9)
  br label %31

10:                                               ; preds = %1
  %11 = load ptr, ptr %2, align 8
  call void @ExecCustomMarkPos(ptr noundef %11)
  br label %31

12:                                               ; preds = %1
  %13 = load ptr, ptr %2, align 8
  call void @ExecMaterialMarkPos(ptr noundef %13)
  br label %31

14:                                               ; preds = %1
  %15 = load ptr, ptr %2, align 8
  call void @ExecSortMarkPos(ptr noundef %15)
  br label %31

16:                                               ; preds = %1
  %17 = load ptr, ptr %2, align 8
  call void @ExecResultMarkPos(ptr noundef %17)
  br label %31

18:                                               ; preds = %1
  br label %19

19:                                               ; preds = %18
  br i1 false, label %20, label %22

20:                                               ; preds = %19
  %21 = call zeroext i1 @errstart_cold(i32 noundef 13, ptr noundef null) #7
  br i1 %21, label %24, label %29

22:                                               ; preds = %19
  %23 = call zeroext i1 @errstart(i32 noundef 13, ptr noundef null)
  br i1 %23, label %24, label %29

24:                                               ; preds = %22, %20
  %25 = load ptr, ptr %2, align 8
  %26 = getelementptr inbounds nuw %struct.Node, ptr %25, i32 0, i32 0
  %27 = load i32, ptr %26, align 4
  %28 = call i32 (ptr, ...) @errmsg_internal(ptr noundef @.str, i32 noundef %27)
  call void @errfinish(ptr noundef @.str.1, i32 noundef 356, ptr noundef @__func__.ExecMarkPos)
  br label %29

29:                                               ; preds = %24, %22, %20
  br label %30

30:                                               ; preds = %29
  br label %31

31:                                               ; preds = %30, %16, %14, %12, %10, %8, %6
  ret void
}