; Function Attrs: nounwind uwtable
define dso_local void @ExecMarkPos(ptr noundef %0) local_unnamed_addr #0 {
  %2 = load i32, ptr %0, align 4
  switch i32 %2, label %9 [
    i32 404, label %3
    i32 405, label %4
    i32 418, label %5
    i32 423, label %6
    i32 425, label %7
    i32 393, label %8
  ]

3:                                                ; preds = %1
  tail call void @ExecIndexMarkPos(ptr noundef nonnull %0) #6
  br label %14

4:                                                ; preds = %1
  tail call void @ExecIndexOnlyMarkPos(ptr noundef nonnull %0) #6
  br label %14

5:                                                ; preds = %1
  tail call void @ExecCustomMarkPos(ptr noundef nonnull %0) #6
  br label %14

6:                                                ; preds = %1
  tail call void @ExecMaterialMarkPos(ptr noundef nonnull %0) #6
  br label %14

7:                                                ; preds = %1
  tail call void @ExecSortMarkPos(ptr noundef nonnull %0) #6
  br label %14

8:                                                ; preds = %1
  tail call void @ExecResultMarkPos(ptr noundef nonnull %0) #6
  br label %14

9:                                                ; preds = %1
  %10 = tail call zeroext i1 @errstart(i32 noundef 13, ptr noundef null) #6
  br i1 %10, label %11, label %14

11:                                               ; preds = %9
  %12 = load i32, ptr %0, align 4
  %13 = tail call i32 (ptr, ...) @errmsg_internal(ptr noundef nonnull @.str, i32 noundef %12) #6
  tail call void @errfinish(ptr noundef nonnull @.str.1, i32 noundef 356, ptr noundef nonnull @__func__.ExecMarkPos) #6
  br label %14

14:                                               ; preds = %11, %9, %8, %7, %6, %5, %4, %3
  ret void
}